; Function Attrs: mustprogress uwtable
define hidden noundef range(i32 0, 4) i32 @_ZN4cvc58internal6theory11quantifiers19TransitionInference14incrementTraceERNS2_8DetTraceEb(ptr noundef nonnull align 8 dereferenceable(320) %0, ptr noundef nonnull align 8 dereferenceable(72) %1, i1 noundef zeroext %2) local_unnamed_addr #3 align 2 personality ptr @__gxx_personality_v0 {
  %4 = alloca %"class.cvc5::internal::NodeTemplate", align 8
  %5 = getelementptr inbounds nuw i8, ptr %0, i64 248
  %6 = getelementptr inbounds nuw i8, ptr %0, i64 256
  %7 = load ptr, ptr %6, align 8, !tbaa !23
  %8 = load ptr, ptr %5, align 8, !tbaa !25
  %9 = ptrtoint ptr %7 to i64
  %10 = ptrtoint ptr %8 to i64
  %11 = sub i64 %9, %10
  %12 = icmp eq i64 %11, 8
  br i1 %12, label %13, label %_ZN4cvc58internal12NodeTemplateILb1EED2Ev.exit

13:                                               ; preds = %3
  %14 = load ptr, ptr %8, align 8, !tbaa !15
  store ptr %14, ptr %4, align 8, !tbaa !15
  %15 = load i64, ptr %14, align 8
  %16 = lshr i64 %15, 40
  %17 = trunc nuw nsw i64 %16 to i32
  %18 = and i32 %17, 1048575
  %19 = icmp samesign ult i32 %18, 1048574
  br i1 %19, label %20, label %25, !prof !38

20:                                               ; preds = %13
  %21 = add i64 %15, 1099511627776
  %22 = and i64 %21, 1152920405095219200
  %23 = and i64 %15, -1152920405095219201
  %24 = or disjoint i64 %22, %23
  store i64 %24, ptr %14, align 8
  br label %_ZN4cvc58internal12NodeTemplateILb1EEC2ERKS2_.exit

25:                                               ; preds = %13
  %26 = icmp eq i32 %18, 1048574
  br i1 %26, label %27, label %_ZN4cvc58internal12NodeTemplateILb1EEC2ERKS2_.exit, !prof !39

27:                                               ; preds = %25
  %28 = or i64 %15, 1152920405095219200
  store i64 %28, ptr %14, align 8
  tail call void @_ZN4cvc58internal4expr9NodeValue20markRefCountMaxedOutEv(ptr noundef nonnull align 8 dereferenceable(24) %14)
  br label %_ZN4cvc58internal12NodeTemplateILb1EEC2ERKS2_.exit

_ZN4cvc58internal12NodeTemplateILb1EEC2ERKS2_.exit: ; preds = %20, %25, %27
  %29 = invoke noundef i32 @_ZN4cvc58internal6theory11quantifiers19TransitionInference14incrementTraceERNS2_8DetTraceENS0_12NodeTemplateILb1EEEb(ptr noundef nonnull align 8 dereferenceable(320) %0, ptr noundef nonnull align 8 dereferenceable(72) %1, ptr noundef nonnull %4, i1 noundef zeroext %2)
          to label %30 unwind label %43

30:                                               ; preds = %_ZN4cvc58internal12NodeTemplateILb1EEC2ERKS2_.exit
  %31 = load i64, ptr %14, align 8
  %32 = and i64 %31, 1152920405095219200
  %.not.i.i = icmp eq i64 %32, 1152920405095219200
  br i1 %.not.i.i, label %_ZN4cvc58internal12NodeTemplateILb1EED2Ev.exit, label %33, !prof !39

33:                                               ; preds = %30
  %34 = add i64 %31, 1152920405095219200
  %35 = and i64 %34, 1152920405095219200
  %36 = and i64 %31, -1152920405095219201
  %37 = or disjoint i64 %35, %36
  store i64 %37, ptr %14, align 8
  %38 = icmp eq i64 %35, 0
  br i1 %38, label %39, label %_ZN4cvc58internal12NodeTemplateILb1EED2Ev.exit, !prof !39

39:                                               ; preds = %33
  invoke void @_ZN4cvc58internal4expr9NodeValue15markForDeletionEv(ptr noundef nonnull align 8 dereferenceable(24) %14)
          to label %_ZN4cvc58internal12NodeTemplateILb1EED2Ev.exit unwind label %40

40:                                               ; preds = %39
  %41 = landingpad { ptr, i32 }
          catch ptr null
  %42 = extractvalue { ptr, i32 } %41, 0
  tail call void @__clang_call_terminate(ptr %42) #24
  unreachable

43:                                               ; preds = %_ZN4cvc58internal12NodeTemplateILb1EEC2ERKS2_.exit
  %44 = landingpad { ptr, i32 }
          cleanup
  call void @_ZN4cvc58internal12NodeTemplateILb1EED2Ev(ptr noundef nonnull align 8 dereferenceable(8) %4) #23
  resume { ptr, i32 } %44

_ZN4cvc58internal12NodeTemplateILb1EED2Ev.exit:   ; preds = %39, %33, %30, %3
  %.0 = phi i32 [ 3, %3 ], [ %29, %30 ], [ %29, %33 ], [ %29, %39 ]
  ret i32 %.0
}